Certificate:
    Data:
        Version: 1 (0x0)
        Serial Number: 272 (0x110)
    Signature Algorithm: md5WithRSAEncryption
        Issuer: O=NOVA ROOT, L=Mountain View, ST=California, C=US
        Validity
            Not Before: Jul 25 15:27:40 2013 GMT
            Not After : Jul 25 15:27:40 2014 GMT
        Subject: C=US, ST=California, O=OpenStack, OU=NovaDev, CN=b2b296da70284e9c-966e08904daa4bb0-2013-07-25T15:27:40Z
        Subject Public Key Info:
            Public Key Algorithm: rsaEncryption
                Public-Key: (1024 bit)
                Modulus:
                    00:bf:a3:9e:2d:51:dd:78:6c:ab:1a:81:92:a4:04:
                    41:b1:41:21:8f:d6:4a:f2:55:85:13:2e:c6:2a:02:
                    9b:da:e1:67:d2:40:50:6d:0d:cb:dd:98:cb:24:ca:
                    92:e0:68:f1:4e:dc:35:f0:73:a7:69:1b:bc:e7:87:
                    ef:7d:e8:74:ff:7d:46:1e:02:99:7d:92:1f:82:4c:
                    7c:86:25:73:a3:7b:7b:1c:51:bc:f2:00:42:83:0a:
                    5c:4a:f3:b9:8a:7b:ce:97:8f:44:3f:d8:80:17:a8:
                    25:a4:b1:5e:1b:44:de:94:38:39:e7:90:dd:12:7a:
                    eb:1b:e2:56:88:94:9a:26:47
                Exponent: 65537 (0x10001)
    Signature Algorithm: md5WithRSAEncryption
         97:ba:19:ac:00:41:a2:cc:5a:f7:fc:8b:2a:e2:c6:f2:04:2c:
         4a:d7:60:76:1c:54:6a:a2:d9:70:da:2d:51:6b:2c:42:42:cb:
         cb:a0:87:4c:b8:3c:ca:97:5e:ba:90:27:b3:4e:58:e8:9d:7f:
         a2:ad:b3:47:05:00:83:e7:81:4d:95:90:e5:46:40:36:a5:e5:
         bd:91:d2:da:67:b7:3f:ce:2e:54:fe:52:d0:ff:b9:67:4b:06:
         f1:24:c2:94:3b:19:4b:05:e9:4c:29:5b:fd:1b:48:3b:7a:3e:
         ab:d0:4d:61:a0:e9:54:ae:7e:91:b3:41:f4:99:00:7a:60:f3:
         bf:2b
-----BEGIN CERTIFICATE-----
MIICSDCCAbECAgEQMA0GCSqGSIb3DQEBBAUAME4xEjAQBgNVBAoTCU5PVkEgUk9P
VDEWMBQGA1UEBxMNTW91bnRhaW4gVmlldzETMBEGA1UECBMKQ2FsaWZvcm5pYTEL
MAkGA1UEBhMCVVMwHhcNMTMwNzI1MTUyNzQwWhcNMTQwNzI1MTUyNzQwWjCBiTEL
MAkGA1UEBhMCVVMxEzARBgNVBAgMCkNhbGlmb3JuaWExEjAQBgNVBAoMCU9wZW5T
dGFjazEQMA4GA1UECwwHTm92YURldjE/MD0GA1UEAww2YjJiMjk2ZGE3MDI4NGU5
Yy05NjZlMDg5MDRkYWE0YmIwLTIwMTMtMDctMjVUMTU6Mjc6NDBaMIGfMA0GCSqG
SIb3DQEBAQUAA4GNADCBiQKBgQC/o54tUd14bKsagZKkBEGxQSGP1kryVYUTLsYq
Apva4WfSQFBtDcvdmMskypLgaPFO3DXwc6dpG7znh+996HT/fUYeApl9kh+CTHyG
JXOje3scUbzyAEKDClxK87mKe86Xj0Q/2IAXqCWksV4bRN6UODnnkN0Seusb4laI
lJomRwIDAQABMA0GCSqGSIb3DQEBBAUAA4GBAJe6GawAQaLMWvf8iyrixvIELErX
YHYcVGqi2XDaLVFrLEJCy8ugh0y4PMqXXrqQJ7NOWOidf6Kts0cFAIPngU2VkOVG
QDal5b2R0tpntz/OLlT+UtD/uWdLBvEkwpQ7GUsF6UwpW/0bSDt6PqvQTWGg6VSu
fpGzQfSZAHpg878r
-----END CERTIFICATE-----
