Certificate:
    Data:
        Version: 1 (0x0)
        Serial Number: 271 (0x10f)
    Signature Algorithm: md5WithRSAEncryption
        Issuer: O=NOVA ROOT, L=Mountain View, ST=California, C=US
        Validity
            Not Before: Jul 25 15:27:36 2013 GMT
            Not After : Jul 25 15:27:36 2014 GMT
        Subject: C=US, ST=California, O=OpenStack, OU=NovaDev, CN=3f149d674b28434c-4b505d0a4c3445b9-2013-07-25T15:27:36Z
        Subject Public Key Info:
            Public Key Algorithm: rsaEncryption
                Public-Key: (1024 bit)
                Modulus:
                    00:b7:2c:ba:33:e6:d5:28:35:d5:a8:6a:d7:65:f1:
                    18:15:90:44:8f:ee:3d:80:69:cb:e3:88:ee:0e:00:
                    ac:a8:c5:cd:c9:1c:0c:59:3e:d3:8e:e3:57:c9:d1:
                    4e:d0:4a:9f:00:a8:2e:6c:77:eb:9d:c7:fb:fc:4a:
                    4b:90:19:c4:c4:c6:aa:08:9f:08:3c:2b:da:d6:09:
                    be:2b:bf:ea:04:09:08:20:fc:b2:b4:07:cc:cc:f7:
                    98:6b:b7:55:f5:a3:18:f1:32:f3:09:25:2d:44:ba:
                    26:a7:e3:61:52:1e:37:72:25:1e:79:97:dd:01:86:
                    7a:7e:db:3d:ad:7c:7a:fb:f7
                Exponent: 65537 (0x10001)
    Signature Algorithm: md5WithRSAEncryption
         05:27:49:f2:68:21:44:ab:b5:1a:e1:80:36:d5:1a:27:18:71:
         31:41:b3:7e:75:ad:36:02:63:54:1c:67:6a:17:25:1c:70:d6:
         46:f3:1c:d6:36:14:69:7c:d4:ad:8e:82:df:32:f3:06:b4:bc:
         c0:56:6b:af:88:22:f6:8d:bb:d8:47:37:65:f7:e2:66:1f:2b:
         3f:62:7d:c5:c4:4f:b6:14:77:3c:3f:d3:7f:f2:80:b8:3c:d7:
         a0:8a:5a:24:94:4b:ee:23:37:ee:da:8e:be:1c:4b:c7:81:04:
         3c:08:2b:98:5f:41:fb:0f:6e:ed:cd:14:76:07:64:fe:36:36:
         65:51
-----BEGIN CERTIFICATE-----
MIICSDCCAbECAgEPMA0GCSqGSIb3DQEBBAUAME4xEjAQBgNVBAoTCU5PVkEgUk9P
VDEWMBQGA1UEBxMNTW91bnRhaW4gVmlldzETMBEGA1UECBMKQ2FsaWZvcm5pYTEL
MAkGA1UEBhMCVVMwHhcNMTMwNzI1MTUyNzM2WhcNMTQwNzI1MTUyNzM2WjCBiTEL
MAkGA1UEBhMCVVMxEzARBgNVBAgMCkNhbGlmb3JuaWExEjAQBgNVBAoMCU9wZW5T
dGFjazEQMA4GA1UECwwHTm92YURldjE/MD0GA1UEAww2M2YxNDlkNjc0YjI4NDM0
Yy00YjUwNWQwYTRjMzQ0NWI5LTIwMTMtMDctMjVUMTU6Mjc6MzZaMIGfMA0GCSqG
SIb3DQEBAQUAA4GNADCBiQKBgQC3LLoz5tUoNdWoatdl8RgVkESP7j2AacvjiO4O
AKyoxc3JHAxZPtOO41fJ0U7QSp8AqC5sd+udx/v8SkuQGcTExqoInwg8K9rWCb4r
v+oECQgg/LK0B8zM95hrt1X1oxjxMvMJJS1Euian42FSHjdyJR55l90Bhnp+2z2t
fHr79wIDAQABMA0GCSqGSIb3DQEBBAUAA4GBAAUnSfJoIUSrtRrhgDbVGicYcTFB
s351rTYCY1QcZ2oXJRxw1kbzHNY2FGl81K2Ogt8y8wa0vMBWa6+IIvaNu9hHN2X3
4mYfKz9ifcXET7YUdzw/03/ygLg816CKWiSUS+4jN+7ajr4cS8eBBDwIK5hfQfsP
bu3NFHYHZP42NmVR
-----END CERTIFICATE-----
