Certificate:
    Data:
        Version: 1 (0x0)
        Serial Number: 273 (0x111)
    Signature Algorithm: md5WithRSAEncryption
        Issuer: O=NOVA ROOT, L=Mountain View, ST=California, C=US
        Validity
            Not Before: Jul 25 15:27:44 2013 GMT
            Not After : Jul 25 15:27:44 2014 GMT
        Subject: C=US, ST=California, O=OpenStack, OU=NovaDev, CN=cba13868bd3b4d89-4b505d0a4c3445b9-2013-07-25T15:27:44Z
        Subject Public Key Info:
            Public Key Algorithm: rsaEncryption
                Public-Key: (1024 bit)
                Modulus:
                    00:c2:17:1c:57:3a:4b:d5:1f:22:49:0b:c0:18:a1:
                    c4:3b:6e:60:e1:7e:1f:87:8e:7d:88:4b:f7:de:67:
                    85:81:0b:1c:ca:ab:18:19:97:dc:5c:37:a6:1b:b3:
                    64:60:1f:78:14:52:71:ac:71:a8:88:89:49:59:e6:
                    f7:9d:42:4e:29:a9:cb:ef:30:e3:0d:fd:56:6a:83:
                    55:4e:49:39:d9:fe:3b:80:f1:10:5b:7e:b1:23:d2:
                    b9:c7:c7:5e:fd:bd:d3:bc:31:ca:95:ff:a4:7d:55:
                    f1:30:83:3b:af:d0:bd:75:2c:fc:aa:e7:65:a4:d5:
                    de:a8:f9:a2:7f:aa:6d:0f:49
                Exponent: 65537 (0x10001)
    Signature Algorithm: md5WithRSAEncryption
         4e:c3:5d:05:f0:bf:58:b9:e1:0d:60:bc:75:49:ce:e0:45:8a:
         11:b3:26:55:1f:b3:bf:5a:49:65:56:12:d1:61:a6:e6:d0:d0:
         ab:c1:8c:ed:07:4e:00:ce:80:be:fc:17:07:d4:5e:2c:7d:2c:
         ae:64:47:d2:61:5d:8b:06:0f:d1:c1:f0:13:fc:a9:a7:72:40:
         b0:0a:0a:95:f9:2c:1e:3b:b5:a9:ac:87:69:02:c0:63:42:b0:
         8f:55:3f:5e:f2:b9:c5:0b:17:a4:ed:ef:a8:1f:5d:06:12:e7:
         ea:ab:09:8e:fa:a2:72:5a:94:3e:00:06:b6:db:12:20:50:2b:
         b7:d7
-----BEGIN CERTIFICATE-----
MIICSDCCAbECAgERMA0GCSqGSIb3DQEBBAUAME4xEjAQBgNVBAoTCU5PVkEgUk9P
VDEWMBQGA1UEBxMNTW91bnRhaW4gVmlldzETMBEGA1UECBMKQ2FsaWZvcm5pYTEL
MAkGA1UEBhMCVVMwHhcNMTMwNzI1MTUyNzQ0WhcNMTQwNzI1MTUyNzQ0WjCBiTEL
MAkGA1UEBhMCVVMxEzARBgNVBAgMCkNhbGlmb3JuaWExEjAQBgNVBAoMCU9wZW5T
dGFjazEQMA4GA1UECwwHTm92YURldjE/MD0GA1UEAww2Y2JhMTM4NjhiZDNiNGQ4
OS00YjUwNWQwYTRjMzQ0NWI5LTIwMTMtMDctMjVUMTU6Mjc6NDRaMIGfMA0GCSqG
SIb3DQEBAQUAA4GNADCBiQKBgQDCFxxXOkvVHyJJC8AYocQ7bmDhfh+Hjn2IS/fe
Z4WBCxzKqxgZl9xcN6Ybs2RgH3gUUnGscaiIiUlZ5vedQk4pqcvvMOMN/VZqg1VO
STnZ/juA8RBbfrEj0rnHx179vdO8McqV/6R9VfEwgzuv0L11LPyq52Wk1d6o+aJ/
qm0PSQIDAQABMA0GCSqGSIb3DQEBBAUAA4GBAE7DXQXwv1i54Q1gvHVJzuBFihGz
JlUfs79aSWVWEtFhpubQ0KvBjO0HTgDOgL78FwfUXix9LK5kR9JhXYsGD9HB8BP8
qadyQLAKCpX5LB47tamsh2kCwGNCsI9VP17yucULF6Tt76gfXQYS5+qrCY76onJa
lD4ABrbbEiBQK7fX
-----END CERTIFICATE-----
