Certificate:
    Data:
        Version: 1 (0x0)
        Serial Number: 274 (0x112)
    Signature Algorithm: md5WithRSAEncryption
        Issuer: O=NOVA ROOT, L=Mountain View, ST=California, C=US
        Validity
            Not Before: Jul 25 15:27:47 2013 GMT
            Not After : Jul 25 15:27:47 2014 GMT
        Subject: C=US, ST=California, O=OpenStack, OU=NovaDev, CN=cba13868bd3b4d89-c9ea51b608a34159-2013-07-25T15:27:47Z
        Subject Public Key Info:
            Public Key Algorithm: rsaEncryption
                Public-Key: (1024 bit)
                Modulus:
                    00:bc:51:e0:73:3a:01:70:0e:8b:bb:08:7c:6f:d0:
                    76:58:36:dc:06:17:a4:ce:09:01:d2:ae:e0:7e:a0:
                    22:e8:6d:dd:a1:2d:ed:0b:e5:9a:f5:39:e0:a7:ec:
                    32:4d:2a:fe:b8:14:73:f9:12:61:a7:ce:17:4d:1e:
                    f4:75:29:ea:43:35:f7:91:51:bc:49:a8:86:ca:5b:
                    dd:49:4e:9a:4e:79:41:09:a6:83:ea:da:18:70:42:
                    91:5e:81:37:b8:27:1b:a1:fc:45:74:e4:1a:b1:e2:
                    84:87:3b:14:44:f7:90:51:e0:23:10:44:8c:b8:30:
                    91:3b:c3:94:e5:41:5b:d9:97
                Exponent: 65537 (0x10001)
    Signature Algorithm: md5WithRSAEncryption
         02:75:7e:0b:ef:23:c4:80:f2:e5:10:57:42:5f:d0:9e:0d:ae:
         80:99:0c:7a:4d:52:12:e7:58:8d:df:29:bb:08:4f:ae:56:11:
         bb:34:cb:63:d0:25:8c:95:68:64:75:b2:86:2c:2e:b4:60:a0:
         c7:e8:e7:5c:5c:a7:98:e9:f7:91:7f:44:1f:6d:60:7c:9d:9d:
         2f:03:31:82:3c:49:72:34:91:d6:eb:2a:90:45:6c:cf:45:55:
         50:fb:c7:86:2f:59:0f:67:ed:0b:53:53:5a:18:53:04:f1:72:
         5c:ab:c9:63:46:94:cd:cc:43:83:a0:e5:12:06:f8:67:7c:52:
         b8:66
-----BEGIN CERTIFICATE-----
MIICSDCCAbECAgESMA0GCSqGSIb3DQEBBAUAME4xEjAQBgNVBAoTCU5PVkEgUk9P
VDEWMBQGA1UEBxMNTW91bnRhaW4gVmlldzETMBEGA1UECBMKQ2FsaWZvcm5pYTEL
MAkGA1UEBhMCVVMwHhcNMTMwNzI1MTUyNzQ3WhcNMTQwNzI1MTUyNzQ3WjCBiTEL
MAkGA1UEBhMCVVMxEzARBgNVBAgMCkNhbGlmb3JuaWExEjAQBgNVBAoMCU9wZW5T
dGFjazEQMA4GA1UECwwHTm92YURldjE/MD0GA1UEAww2Y2JhMTM4NjhiZDNiNGQ4
OS1jOWVhNTFiNjA4YTM0MTU5LTIwMTMtMDctMjVUMTU6Mjc6NDdaMIGfMA0GCSqG
SIb3DQEBAQUAA4GNADCBiQKBgQC8UeBzOgFwDou7CHxv0HZYNtwGF6TOCQHSruB+
oCLobd2hLe0L5Zr1OeCn7DJNKv64FHP5EmGnzhdNHvR1KepDNfeRUbxJqIbKW91J
TppOeUEJpoPq2hhwQpFegTe4Jxuh/EV05Bqx4oSHOxRE95BR4CMQRIy4MJE7w5Tl
QVvZlwIDAQABMA0GCSqGSIb3DQEBBAUAA4GBAAJ1fgvvI8SA8uUQV0Jf0J4NroCZ
DHpNUhLnWI3fKbsIT65WEbs0y2PQJYyVaGR1soYsLrRgoMfo51xcp5jp95F/RB9t
YHydnS8DMYI8SXI0kdbrKpBFbM9FVVD7x4YvWQ9n7QtTU1oYUwTxclyryWNGlM3M
Q4Og5RIG+Gd8Urhm
-----END CERTIFICATE-----
