Certificate:
    Data:
        Version: 1 (0x0)
        Serial Number: 275 (0x113)
    Signature Algorithm: md5WithRSAEncryption
        Issuer: O=NOVA ROOT, L=Mountain View, ST=California, C=US
        Validity
            Not Before: Jul 25 15:27:51 2013 GMT
            Not After : Jul 25 15:27:51 2014 GMT
        Subject: C=US, ST=California, O=OpenStack, OU=NovaDev, CN=76e5d7d0341242ae-c9ea51b608a34159-2013-07-25T15:27:51Z
        Subject Public Key Info:
            Public Key Algorithm: rsaEncryption
                Public-Key: (1024 bit)
                Modulus:
                    00:cc:c0:88:c0:7d:66:49:cb:94:63:9d:f9:d6:c9:
                    b1:e9:81:e0:29:64:39:6d:be:59:82:35:b7:5e:0f:
                    6d:ee:a2:d5:82:9a:8f:32:21:8d:49:55:44:f7:09:
                    c5:b0:04:1b:b3:27:f1:95:96:ba:e7:be:f1:3a:73:
                    4c:ef:88:38:fd:45:d2:0b:0e:df:f3:34:ec:3e:5c:
                    3c:97:0a:c3:25:90:ed:3c:d4:45:4b:80:2e:77:a4:
                    79:af:7f:40:1d:a5:be:7b:eb:27:3d:16:98:f9:c4:
                    4b:c9:c5:c0:c3:ea:a9:2e:9e:6d:48:1b:a7:9b:78:
                    28:ab:92:41:c5:e3:8f:a1:fb
                Exponent: 65537 (0x10001)
    Signature Algorithm: md5WithRSAEncryption
         6f:7e:20:dd:fb:45:01:df:d5:6b:18:63:80:2c:65:7a:9e:7f:
         45:d3:28:aa:39:81:97:9b:d8:a1:24:0c:74:a4:64:2e:63:c3:
         eb:8e:7e:e7:46:cc:a9:76:c0:cd:48:48:ab:1b:e7:3c:a3:8e:
         44:33:be:25:70:00:82:09:ba:60:06:31:c5:2f:f3:79:46:08:
         89:47:87:1e:58:31:a3:2f:96:da:92:2d:e3:0c:42:ee:c7:4f:
         b9:50:05:a8:a6:3e:ad:bf:84:f0:78:20:8a:6b:08:48:3c:f7:
         a0:25:26:f1:ce:7e:5d:f2:9a:ff:10:71:94:42:e6:de:cf:92:
         92:6b
-----BEGIN CERTIFICATE-----
MIICSDCCAbECAgETMA0GCSqGSIb3DQEBBAUAME4xEjAQBgNVBAoTCU5PVkEgUk9P
VDEWMBQGA1UEBxMNTW91bnRhaW4gVmlldzETMBEGA1UECBMKQ2FsaWZvcm5pYTEL
MAkGA1UEBhMCVVMwHhcNMTMwNzI1MTUyNzUxWhcNMTQwNzI1MTUyNzUxWjCBiTEL
MAkGA1UEBhMCVVMxEzARBgNVBAgMCkNhbGlmb3JuaWExEjAQBgNVBAoMCU9wZW5T
dGFjazEQMA4GA1UECwwHTm92YURldjE/MD0GA1UEAww2NzZlNWQ3ZDAzNDEyNDJh
ZS1jOWVhNTFiNjA4YTM0MTU5LTIwMTMtMDctMjVUMTU6Mjc6NTFaMIGfMA0GCSqG
SIb3DQEBAQUAA4GNADCBiQKBgQDMwIjAfWZJy5RjnfnWybHpgeApZDltvlmCNbde
D23uotWCmo8yIY1JVUT3CcWwBBuzJ/GVlrrnvvE6c0zviDj9RdILDt/zNOw+XDyX
CsMlkO081EVLgC53pHmvf0Adpb576yc9Fpj5xEvJxcDD6qkunm1IG6ebeCirkkHF
44+h+wIDAQABMA0GCSqGSIb3DQEBBAUAA4GBAG9+IN37RQHf1WsYY4AsZXqef0XT
KKo5gZeb2KEkDHSkZC5jw+uOfudGzKl2wM1ISKsb5zyjjkQzviVwAIIJumAGMcUv
83lGCIlHhx5YMaMvltqSLeMMQu7HT7lQBaimPq2/hPB4IIprCEg896AlJvHOfl3y
mv8QcZRC5t7PkpJr
-----END CERTIFICATE-----
